; Function Attrs: nounwind uwtable
define ptr @av_packet_side_data_new(ptr noundef captures(none) %0, ptr noundef captures(none) %1, i32 noundef %2, i64 noundef %3, i32 noundef %4) local_unnamed_addr #3 {
  %6 = alloca ptr, align 8
  call void @llvm.lifetime.start.p0(i64 8, ptr nonnull %6) #16
  %7 = icmp ugt i64 %3, -65
  br i1 %7, label %packet_side_data_add.exit, label %8

8:                                                ; preds = %5
  %9 = add nuw i64 %3, 64
  %10 = tail call noalias ptr @av_malloc(i64 noundef %9) #16
  store ptr %10, ptr %6, align 8, !tbaa !39
  %.not = icmp eq ptr %10, null
  br i1 %.not, label %packet_side_data_add.exit, label %11

11:                                               ; preds = %8
  %12 = getelementptr inbounds nuw i8, ptr %10, i64 %3
  tail call void @llvm.memset.p0.i64(ptr noundef nonnull align 1 dereferenceable(64) %12, i8 0, i64 64, i1 false)
  %13 = load ptr, ptr %0, align 8, !tbaa !53
  %14 = load i32, ptr %1, align 4, !tbaa !52
  %.not4245.i = icmp sgt i32 %14, 0
  br i1 %.not4245.i, label %.lr.ph.preheader.i, label %._crit_edge.thread.i

.lr.ph.preheader.i:                               ; preds = %11
  %wide.trip.count.i = zext nneg i32 %14 to i64
  br label %.lr.ph.i

15:                                               ; preds = %.lr.ph.i
  %indvars.iv.next.i = add nuw nsw i64 %indvars.iv.i, 1
  %exitcond.not.i = icmp eq i64 %indvars.iv.next.i, %wide.trip.count.i
  br i1 %exitcond.not.i, label %._crit_edge.i, label %.lr.ph.i, !llvm.loop !68

.lr.ph.i:                                         ; preds = %15, %.lr.ph.preheader.i
  %indvars.iv.i = phi i64 [ 0, %.lr.ph.preheader.i ], [ %indvars.iv.next.i, %15 ]
  %16 = getelementptr inbounds nuw %struct.AVPacketSideData, ptr %13, i64 %indvars.iv.i
  %17 = getelementptr inbounds nuw i8, ptr %16, i64 16
  %18 = load i32, ptr %17, align 8, !tbaa !35
  %.not.i = icmp eq i32 %18, %2
  br i1 %.not.i, label %.thread.i, label %15

.thread.i:                                        ; preds = %.lr.ph.i
  %19 = load ptr, ptr %16, align 8, !tbaa !37
  tail call void @av_free(ptr noundef %19) #16
  store ptr %10, ptr %16, align 8, !tbaa !37
  %20 = getelementptr inbounds nuw i8, ptr %16, i64 8
  store i64 %3, ptr %20, align 8, !tbaa !38
  br label %packet_side_data_add.exit

._crit_edge.i:                                    ; preds = %15
  %21 = icmp eq i32 %14, 2147483647
  br i1 %21, label %30, label %._crit_edge.thread.i

._crit_edge.thread.i:                             ; preds = %._crit_edge.i, %11
  %22 = add nsw i32 %14, 1
  %23 = sext i32 %22 to i64
  %24 = tail call ptr @av_realloc_array(ptr noundef %13, i64 noundef %23, i64 noundef 24) #16
  %.not43.i = icmp eq ptr %24, null
  br i1 %.not43.i, label %30, label %25

25:                                               ; preds = %._crit_edge.thread.i
  store ptr %24, ptr %0, align 8, !tbaa !53
  %26 = sext i32 %14 to i64
  %27 = getelementptr inbounds %struct.AVPacketSideData, ptr %24, i64 %26
  %28 = getelementptr inbounds nuw i8, ptr %27, i64 16
  store i32 %2, ptr %28, align 8, !tbaa !35
  store ptr %10, ptr %27, align 8, !tbaa !37
  %29 = getelementptr inbounds nuw i8, ptr %27, i64 8
  store i64 %3, ptr %29, align 8, !tbaa !38
  store i32 %22, ptr %1, align 4, !tbaa !52
  br label %packet_side_data_add.exit

30:                                               ; preds = %._crit_edge.i, %._crit_edge.thread.i
  call void @av_freep(ptr noundef nonnull %6) #16
  br label %packet_side_data_add.exit

packet_side_data_add.exit:                        ; preds = %25, %.thread.i, %30, %8, %5
  %.0 = phi ptr [ null, %5 ], [ null, %8 ], [ null, %30 ], [ %27, %25 ], [ %16, %.thread.i ]
  call void @llvm.lifetime.end.p0(i64 8, ptr nonnull %6) #16
  ret ptr %.0
}